target datalayout = "e-m:e-p270:32:32-p271:32:32-p272:64:64-i64:64-i128:128-f80:128-n8:16:32:64-S128"
target triple = "x86_64-pc-linux-gnu"

@.str = private unnamed_addr constant [35 x i8] c"../openssl/crypto/ts/ts_rsp_sign.c\00", align 1

; Function Attrs: nounwind uwtable
define internal i32 @ossl_ess_add1_signing_cert_v2(ptr noundef %0, ptr noundef %1) #0 {
  %3 = alloca i32, align 4
  %4 = alloca ptr, align 8
  %5 = alloca ptr, align 8
  %6 = alloca ptr, align 8
  %7 = alloca i32, align 4
  %8 = alloca ptr, align 8
  %9 = alloca ptr, align 8
  %10 = alloca i32, align 4
  store ptr %0, ptr %4, align 8, !tbaa !128
  store ptr %1, ptr %5, align 8, !tbaa !117
  call void @llvm.lifetime.start.p0(i64 8, ptr %6) #7
  store ptr null, ptr %6, align 8, !tbaa !31
  call void @llvm.lifetime.start.p0(i64 4, ptr %7) #7
  %11 = load ptr, ptr %5, align 8, !tbaa !117
  %12 = call i32 @i2d_ESS_SIGNING_CERT_V2(ptr noundef %11, ptr noundef null)
  store i32 %12, ptr %7, align 4, !tbaa !60
  call void @llvm.lifetime.start.p0(i64 8, ptr %8) #7
  call void @llvm.lifetime.start.p0(i64 8, ptr %9) #7
  %13 = load i32, ptr %7, align 4, !tbaa !60
  %14 = sext i32 %13 to i64
  %15 = call noalias ptr @CRYPTO_malloc(i64 noundef %14, ptr noundef @.str, i32 noundef 655)
  store ptr %15, ptr %9, align 8, !tbaa !8
  %16 = load ptr, ptr %9, align 8, !tbaa !8
  %17 = icmp eq ptr %16, null
  br i1 %17, label %18, label %19

18:                                               ; preds = %2
  store i32 0, ptr %3, align 4
  store i32 1, ptr %10, align 4
  br label %39

19:                                               ; preds = %2
  %20 = load ptr, ptr %9, align 8, !tbaa !8
  store ptr %20, ptr %8, align 8, !tbaa !8
  %21 = load ptr, ptr %5, align 8, !tbaa !117
  %22 = call i32 @i2d_ESS_SIGNING_CERT_V2(ptr noundef %21, ptr noundef %8)
  %23 = call ptr @ASN1_STRING_new()
  store ptr %23, ptr %6, align 8, !tbaa !31
  %24 = icmp eq ptr %23, null
  br i1 %24, label %31, label %25

25:                                               ; preds = %19
  %26 = load ptr, ptr %6, align 8, !tbaa !31
  %27 = load ptr, ptr %9, align 8, !tbaa !8
  %28 = load i32, ptr %7, align 4, !tbaa !60
  %29 = call i32 @ASN1_STRING_set(ptr noundef %26, ptr noundef %27, i32 noundef %28)
  %30 = icmp ne i32 %29, 0
  br i1 %30, label %34, label %31

31:                                               ; preds = %25, %19
  %32 = load ptr, ptr %6, align 8, !tbaa !31
  call void @ASN1_STRING_free(ptr noundef %32)
  %33 = load ptr, ptr %9, align 8, !tbaa !8
  call void @CRYPTO_free(ptr noundef %33, ptr noundef @.str, i32 noundef 664)
  store i32 0, ptr %3, align 4
  store i32 1, ptr %10, align 4
  br label %39

34:                                               ; preds = %25
  %35 = load ptr, ptr %9, align 8, !tbaa !8
  call void @CRYPTO_free(ptr noundef %35, ptr noundef @.str, i32 noundef 668)
  %36 = load ptr, ptr %4, align 8, !tbaa !128
  %37 = load ptr, ptr %6, align 8, !tbaa !31
  %38 = call i32 @PKCS7_add_signed_attribute(ptr noundef %36, i32 noundef 1086, i32 noundef 16, ptr noundef %37)
  store i32 %38, ptr %3, align 4
  store i32 1, ptr %10, align 4
  br label %39

39:                                               ; preds = %34, %31, %18
  call void @llvm.lifetime.end.p0(i64 8, ptr %9) #7
  call void @llvm.lifetime.end.p0(i64 8, ptr %8) #7
  call void @llvm.lifetime.end.p0(i64 4, ptr %7) #7
  call void @llvm.lifetime.end.p0(i64 8, ptr %6) #7
  %40 = load i32, ptr %3, align 4
  ret i32 %40
}