; Function Attrs: nounwind uwtable
define internal fastcc i32 @ossl_ess_add1_signing_cert_v2(ptr noundef nonnull %0, ptr noundef nonnull %1) unnamed_addr #0 {
  %3 = alloca ptr, align 8
  %4 = tail call i32 @i2d_ESS_SIGNING_CERT_V2(ptr noundef nonnull %1, ptr noundef null) #9
  call void @llvm.lifetime.start.p0(i64 8, ptr nonnull %3) #9
  %5 = sext i32 %4 to i64
  %6 = tail call noalias ptr @CRYPTO_malloc(i64 noundef %5, ptr noundef nonnull @.str, i32 noundef 655) #9
  %7 = icmp eq ptr %6, null
  br i1 %7, label %17, label %8

8:                                                ; preds = %2
  store ptr %6, ptr %3, align 8, !tbaa !93
  %9 = call i32 @i2d_ESS_SIGNING_CERT_V2(ptr noundef nonnull %1, ptr noundef nonnull %3) #9
  %10 = call ptr @ASN1_STRING_new() #9
  %11 = icmp eq ptr %10, null
  br i1 %11, label %14, label %12

12:                                               ; preds = %8
  %13 = call i32 @ASN1_STRING_set(ptr noundef nonnull %10, ptr noundef nonnull %6, i32 noundef %4) #9
  %.not = icmp eq i32 %13, 0
  br i1 %.not, label %14, label %15

14:                                               ; preds = %12, %8
  call void @ASN1_STRING_free(ptr noundef %10) #9
  call void @CRYPTO_free(ptr noundef nonnull %6, ptr noundef nonnull @.str, i32 noundef 664) #9
  br label %17

15:                                               ; preds = %12
  call void @CRYPTO_free(ptr noundef nonnull %6, ptr noundef nonnull @.str, i32 noundef 668) #9
  %16 = call i32 @PKCS7_add_signed_attribute(ptr noundef nonnull %0, i32 noundef 1086, i32 noundef 16, ptr noundef nonnull %10) #9
  br label %17

17:                                               ; preds = %2, %15, %14
  %.0 = phi i32 [ 0, %14 ], [ %16, %15 ], [ 0, %2 ]
  call void @llvm.lifetime.end.p0(i64 8, ptr nonnull %3) #9
  ret i32 %.0
}